; Function Attrs: mustprogress nounwind uwtable
define void @_ZN19OpenColorIO_v2_5dev12GPUProcessorD2Ev(ptr noundef nonnull align 8 captures(none) dereferenceable(8) %0) unnamed_addr #5 align 2 personality ptr @__gxx_personality_v0 {
  %2 = load ptr, ptr %0, align 8, !tbaa !65
  %3 = icmp eq ptr %2, null
  br i1 %3, label %14, label %4

4:                                                ; preds = %1
  %5 = getelementptr inbounds nuw i8, ptr %2, i64 152
  %6 = load ptr, ptr %5, align 8, !tbaa !34
  %7 = getelementptr inbounds nuw i8, ptr %2, i64 168
  %8 = icmp eq ptr %6, %7
  br i1 %8, label %_ZNKSt7__cxx1112basic_stringIcSt11char_traitsIcESaIcEE11_M_is_localEv.exit.thread.i.i.i, label %_ZNKSt7__cxx1112basic_stringIcSt11char_traitsIcESaIcEE11_M_is_localEv.exit.i.i.i

_ZNKSt7__cxx1112basic_stringIcSt11char_traitsIcESaIcEE11_M_is_localEv.exit.thread.i.i.i: ; preds = %4
  %9 = getelementptr inbounds nuw i8, ptr %2, i64 160
  %10 = load i64, ptr %9, align 8, !tbaa !35
  %11 = icmp ult i64 %10, 16
  tail call void @llvm.assume(i1 %11)
  br label %_ZN19OpenColorIO_v2_5dev12GPUProcessor4ImplD2Ev.exit

_ZNKSt7__cxx1112basic_stringIcSt11char_traitsIcESaIcEE11_M_is_localEv.exit.i.i.i: ; preds = %4
  %12 = load i64, ptr %7, align 8, !tbaa !36
  %13 = add i64 %12, 1
  tail call void @_ZdlPvm(ptr noundef %6, i64 noundef %13) #24
  br label %_ZN19OpenColorIO_v2_5dev12GPUProcessor4ImplD2Ev.exit

_ZN19OpenColorIO_v2_5dev12GPUProcessor4ImplD2Ev.exit: ; preds = %_ZNKSt7__cxx1112basic_stringIcSt11char_traitsIcESaIcEE11_M_is_localEv.exit.thread.i.i.i, %_ZNKSt7__cxx1112basic_stringIcSt11char_traitsIcESaIcEE11_M_is_localEv.exit.i.i.i
  tail call void @_ZN19OpenColorIO_v2_5dev10OpRcPtrVecD2Ev(ptr noundef nonnull align 8 dereferenceable(224) %2) #22
  tail call void @_ZdlPvm(ptr noundef nonnull %2, i64 noundef 224) #24
  br label %14

14:                                               ; preds = %_ZN19OpenColorIO_v2_5dev12GPUProcessor4ImplD2Ev.exit, %1
  store ptr null, ptr %0, align 8, !tbaa !65
  ret void
}